target datalayout = "e-m:e-p270:32:32-p271:32:32-p272:64:64-i64:64-i128:128-f80:128-n8:16:32:64-S128"
target triple = "x86_64-pc-linux-gnu"

%struct.Vec_Int_t_ = type { i32, i32, ptr }
%struct.Gia_Man_t_ = type { ptr, ptr, i32, i32, i32, i32, ptr, ptr, i32, i32, i32, ptr, ptr, %struct.Vec_Int_t_, %struct.Vec_Int_t_, i32, i32, i32, %struct.Vec_Int_t_, ptr, ptr, ptr, i32, i32, i32, i32, ptr, ptr, ptr, ptr, ptr, i32, i32, ptr, i32, ptr, ptr, ptr, ptr, ptr, ptr, ptr, ptr, ptr, ptr, ptr, ptr, ptr, ptr, ptr, ptr, ptr, ptr, %struct.Vec_Int_t_, %struct.Vec_Int_t_, ptr, ptr, ptr, ptr, ptr, ptr, ptr, ptr, ptr, ptr, ptr, ptr, ptr, ptr, ptr, ptr, ptr, ptr, ptr, ptr, ptr, i32, float, float, ptr, ptr, i32, ptr, ptr, ptr, ptr, ptr, ptr, ptr, ptr, ptr, ptr, ptr, ptr, ptr, ptr, ptr, i64, i64, ptr, ptr, i32, i32, i32, i32, i32, i32, i32, i32, i32, i32, i32, i32, ptr, ptr, ptr, ptr, ptr, ptr, ptr, ptr, i32, i32, i32, ptr, i32, i32, ptr, ptr, ptr, ptr, ptr, ptr, i32, i32, ptr, %struct.Vec_Int_t_, %struct.Vec_Int_t_, %struct.Vec_Int_t_, ptr, ptr, ptr, i32, i32, i32, i32, ptr, ptr, ptr, ptr, ptr }
%struct.Jf_Man_t_ = type { ptr, ptr, ptr, ptr, ptr, %struct.Vec_Int_t_, %struct.Vec_Int_t_, %struct.Vec_Int_t_, %struct.Vec_Flt_t_, %struct.Vec_Flt_t_, %struct.Vec_Set_t_, ptr, ptr, i64, [4 x i64], i32 }
%struct.Vec_Flt_t_ = type { i32, i32, ptr }
%struct.Vec_Set_t_ = type { i32, i32, i32, i32, i32, i32, ptr }

; Function Attrs: inlinehint nounwind uwtable
define internal i32 @Vec_SetHandShift(ptr noundef %0, i32 noundef %1) #1 {
  %3 = alloca ptr, align 8
  %4 = alloca i32, align 4
  store ptr %0, ptr %3, align 8, !tbaa !112
  store i32 %1, ptr %4, align 4, !tbaa !7
  %5 = load i32, ptr %4, align 4, !tbaa !7
  %6 = load ptr, ptr %3, align 8, !tbaa !112
  %7 = getelementptr inbounds nuw %struct.Vec_Set_t_, ptr %6, i32 0, i32 1
  %8 = load i32, ptr %7, align 4, !tbaa !115
  %9 = and i32 %5, %8
  ret i32 %9
}

; Function Attrs: inlinehint nounwind uwtable
define internal i32 @Vec_SetHandPage(ptr noundef %0, i32 noundef %1) #1 {
  %3 = alloca ptr, align 8
  %4 = alloca i32, align 4
  store ptr %0, ptr %3, align 8, !tbaa !112
  store i32 %1, ptr %4, align 4, !tbaa !7
  %5 = load i32, ptr %4, align 4, !tbaa !7
  %6 = load ptr, ptr %3, align 8, !tbaa !112
  %7 = getelementptr inbounds nuw %struct.Vec_Set_t_, ptr %6, i32 0, i32 0
  %8 = load i32, ptr %7, align 8, !tbaa !114
  %9 = ashr i32 %5, %8
  ret i32 %9
}

; Function Attrs: inlinehint nounwind uwtable
define internal i32 @Vec_IntEntry(ptr noundef %0, i32 noundef %1) #1 {
  %3 = alloca ptr, align 8
  %4 = alloca i32, align 4
  store ptr %0, ptr %3, align 8, !tbaa !9
  store i32 %1, ptr %4, align 4, !tbaa !7
  %5 = load ptr, ptr %3, align 8, !tbaa !9
  %6 = getelementptr inbounds nuw %struct.Vec_Int_t_, ptr %5, i32 0, i32 2
  %7 = load ptr, ptr %6, align 8, !tbaa !20
  %8 = load i32, ptr %4, align 4, !tbaa !7
  %9 = sext i32 %8 to i64
  %10 = getelementptr inbounds i32, ptr %7, i64 %9
  %11 = load i32, ptr %10, align 4, !tbaa !7
  ret i32 %11
}

; Function Attrs: inlinehint nounwind uwtable
define internal ptr @Vec_SetEntry(ptr noundef %0, i32 noundef %1) #1 {
  %3 = alloca ptr, align 8
  %4 = alloca i32, align 4
  store ptr %0, ptr %3, align 8, !tbaa !112
  store i32 %1, ptr %4, align 4, !tbaa !7
  %5 = load ptr, ptr %3, align 8, !tbaa !112
  %6 = getelementptr inbounds nuw %struct.Vec_Set_t_, ptr %5, i32 0, i32 6
  %7 = load ptr, ptr %6, align 8, !tbaa !117
  %8 = load ptr, ptr %3, align 8, !tbaa !112
  %9 = load i32, ptr %4, align 4, !tbaa !7
  %10 = call i32 @Vec_SetHandPage(ptr noundef %8, i32 noundef %9)
  %11 = sext i32 %10 to i64
  %12 = getelementptr inbounds ptr, ptr %7, i64 %11
  %13 = load ptr, ptr %12, align 8, !tbaa !104
  %14 = load ptr, ptr %3, align 8, !tbaa !112
  %15 = load i32, ptr %4, align 4, !tbaa !7
  %16 = call i32 @Vec_SetHandShift(ptr noundef %14, i32 noundef %15)
  %17 = sext i32 %16 to i64
  %18 = getelementptr inbounds i64, ptr %13, i64 %17
  ret ptr %18
}

; Function Attrs: inlinehint nounwind uwtable
define internal i32 @Jf_ObjCutH(ptr noundef %0, i32 noundef %1) #1 {
  %3 = alloca ptr, align 8
  %4 = alloca i32, align 4
  store ptr %0, ptr %3, align 8, !tbaa !64
  store i32 %1, ptr %4, align 4, !tbaa !7
  %5 = load ptr, ptr %3, align 8, !tbaa !64
  %6 = getelementptr inbounds nuw %struct.Jf_Man_t_, ptr %5, i32 0, i32 5
  %7 = load i32, ptr %4, align 4, !tbaa !7
  %8 = call i32 @Vec_IntEntry(ptr noundef %6, i32 noundef %7)
  ret i32 %8
}

; Function Attrs: inlinehint nounwind uwtable
define internal void @Vec_IntGrow(ptr noundef %0, i32 noundef %1) #1 {
  %3 = alloca ptr, align 8
  %4 = alloca i32, align 4
  store ptr %0, ptr %3, align 8, !tbaa !9
  store i32 %1, ptr %4, align 4, !tbaa !7
  %5 = load ptr, ptr %3, align 8, !tbaa !9
  %6 = getelementptr inbounds nuw %struct.Vec_Int_t_, ptr %5, i32 0, i32 0
  %7 = load i32, ptr %6, align 8, !tbaa !19
  %8 = load i32, ptr %4, align 4, !tbaa !7
  %9 = icmp sge i32 %7, %8
  br i1 %9, label %10, label %11

10:                                               ; preds = %2
  br label %36

11:                                               ; preds = %2
  %12 = load ptr, ptr %3, align 8, !tbaa !9
  %13 = getelementptr inbounds nuw %struct.Vec_Int_t_, ptr %12, i32 0, i32 2
  %14 = load ptr, ptr %13, align 8, !tbaa !20
  %15 = icmp ne ptr %14, null
  br i1 %15, label %16, label %24

16:                                               ; preds = %11
  %17 = load ptr, ptr %3, align 8, !tbaa !9
  %18 = getelementptr inbounds nuw %struct.Vec_Int_t_, ptr %17, i32 0, i32 2
  %19 = load ptr, ptr %18, align 8, !tbaa !20
  %20 = load i32, ptr %4, align 4, !tbaa !7
  %21 = sext i32 %20 to i64
  %22 = mul i64 4, %21
  %23 = call ptr @realloc(ptr noundef %19, i64 noundef %22) #18
  br label %29

24:                                               ; preds = %11
  %25 = load i32, ptr %4, align 4, !tbaa !7
  %26 = sext i32 %25 to i64
  %27 = mul i64 4, %26
  %28 = call noalias ptr @malloc(i64 noundef %27) #15
  br label %29

29:                                               ; preds = %24, %16
  %30 = phi ptr [ %23, %16 ], [ %28, %24 ]
  %31 = load ptr, ptr %3, align 8, !tbaa !9
  %32 = getelementptr inbounds nuw %struct.Vec_Int_t_, ptr %31, i32 0, i32 2
  store ptr %30, ptr %32, align 8, !tbaa !20
  %33 = load i32, ptr %4, align 4, !tbaa !7
  %34 = load ptr, ptr %3, align 8, !tbaa !9
  %35 = getelementptr inbounds nuw %struct.Vec_Int_t_, ptr %34, i32 0, i32 0
  store i32 %33, ptr %35, align 8, !tbaa !19
  br label %36

36:                                               ; preds = %29, %10
  ret void
}

; Function Attrs: inlinehint nounwind uwtable
define internal ptr @Jf_ObjCuts(ptr noundef %0, i32 noundef %1) #1 {
  %3 = alloca ptr, align 8
  %4 = alloca i32, align 4
  store ptr %0, ptr %3, align 8, !tbaa !64
  store i32 %1, ptr %4, align 4, !tbaa !7
  %5 = load ptr, ptr %3, align 8, !tbaa !64
  %6 = getelementptr inbounds nuw %struct.Jf_Man_t_, ptr %5, i32 0, i32 10
  %7 = load ptr, ptr %3, align 8, !tbaa !64
  %8 = load i32, ptr %4, align 4, !tbaa !7
  %9 = call i32 @Jf_ObjCutH(ptr noundef %7, i32 noundef %8)
  %10 = call ptr @Vec_SetEntry(ptr noundef %6, i32 noundef %9)
  ret ptr %10
}

; Function Attrs: inlinehint nounwind uwtable
define internal i32 @Abc_Lit2Var(i32 noundef %0) #1 {
  %2 = alloca i32, align 4
  store i32 %0, ptr %2, align 4, !tbaa !7
  %3 = load i32, ptr %2, align 4, !tbaa !7
  %4 = ashr i32 %3, 1
  ret i32 %4
}

; Function Attrs: inlinehint nounwind uwtable
define internal i32 @Vec_IntSize(ptr noundef %0) #1 {
  %2 = alloca ptr, align 8
  store ptr %0, ptr %2, align 8, !tbaa !9
  %3 = load ptr, ptr %2, align 8, !tbaa !9
  %4 = getelementptr inbounds nuw %struct.Vec_Int_t_, ptr %3, i32 0, i32 1
  %5 = load i32, ptr %4, align 4, !tbaa !16
  ret i32 %5
}

; Function Attrs: inlinehint nounwind uwtable
define internal void @Vec_IntPush(ptr noundef %0, i32 noundef %1) #1 {
  %3 = alloca ptr, align 8
  %4 = alloca i32, align 4
  store ptr %0, ptr %3, align 8, !tbaa !9
  store i32 %1, ptr %4, align 4, !tbaa !7
  %5 = load ptr, ptr %3, align 8, !tbaa !9
  %6 = getelementptr inbounds nuw %struct.Vec_Int_t_, ptr %5, i32 0, i32 1
  %7 = load i32, ptr %6, align 4, !tbaa !16
  %8 = load ptr, ptr %3, align 8, !tbaa !9
  %9 = getelementptr inbounds nuw %struct.Vec_Int_t_, ptr %8, i32 0, i32 0
  %10 = load i32, ptr %9, align 8, !tbaa !19
  %11 = icmp eq i32 %7, %10
  br i1 %11, label %12, label %26

12:                                               ; preds = %2
  %13 = load ptr, ptr %3, align 8, !tbaa !9
  %14 = getelementptr inbounds nuw %struct.Vec_Int_t_, ptr %13, i32 0, i32 0
  %15 = load i32, ptr %14, align 8, !tbaa !19
  %16 = icmp slt i32 %15, 16
  br i1 %16, label %17, label %19

17:                                               ; preds = %12
  %18 = load ptr, ptr %3, align 8, !tbaa !9
  call void @Vec_IntGrow(ptr noundef %18, i32 noundef 16)
  br label %25

19:                                               ; preds = %12
  %20 = load ptr, ptr %3, align 8, !tbaa !9
  %21 = load ptr, ptr %3, align 8, !tbaa !9
  %22 = getelementptr inbounds nuw %struct.Vec_Int_t_, ptr %21, i32 0, i32 0
  %23 = load i32, ptr %22, align 8, !tbaa !19
  %24 = mul nsw i32 2, %23
  call void @Vec_IntGrow(ptr noundef %20, i32 noundef %24)
  br label %25

25:                                               ; preds = %19, %17
  br label %26

26:                                               ; preds = %25, %2
  %27 = load i32, ptr %4, align 4, !tbaa !7
  %28 = load ptr, ptr %3, align 8, !tbaa !9
  %29 = getelementptr inbounds nuw %struct.Vec_Int_t_, ptr %28, i32 0, i32 2
  %30 = load ptr, ptr %29, align 8, !tbaa !20
  %31 = load ptr, ptr %3, align 8, !tbaa !9
  %32 = getelementptr inbounds nuw %struct.Vec_Int_t_, ptr %31, i32 0, i32 1
  %33 = load i32, ptr %32, align 4, !tbaa !16
  %34 = add nsw i32 %33, 1
  store i32 %34, ptr %32, align 4, !tbaa !16
  %35 = sext i32 %33 to i64
  %36 = getelementptr inbounds i32, ptr %30, i64 %35
  store i32 %27, ptr %36, align 4, !tbaa !7
  ret void
}

; Function Attrs: inlinehint nounwind uwtable
define internal i32 @Jf_CutIsTriv(ptr noundef %0, i32 noundef %1) #1 {
  %3 = alloca ptr, align 8
  %4 = alloca i32, align 4
  store ptr %0, ptr %3, align 8, !tbaa !27
  store i32 %1, ptr %4, align 4, !tbaa !7
  %5 = load ptr, ptr %3, align 8, !tbaa !27
  %6 = call i32 @Jf_CutSize(ptr noundef %5)
  %7 = icmp eq i32 %6, 1
  br i1 %7, label %8, label %13

8:                                                ; preds = %2
  %9 = load ptr, ptr %3, align 8, !tbaa !27
  %10 = call i32 @Jf_CutVar(ptr noundef %9, i32 noundef 1)
  %11 = load i32, ptr %4, align 4, !tbaa !7
  %12 = icmp eq i32 %10, %11
  br label %13

13:                                               ; preds = %8, %2
  %14 = phi i1 [ false, %2 ], [ %12, %8 ]
  %15 = zext i1 %14 to i32
  ret i32 %15
}

; Function Attrs: inlinehint nounwind uwtable
define internal ptr @Jf_ObjCutBest(ptr noundef %0, i32 noundef %1) #1 {
  %3 = alloca ptr, align 8
  %4 = alloca i32, align 4
  store ptr %0, ptr %3, align 8, !tbaa !64
  store i32 %1, ptr %4, align 4, !tbaa !7
  %5 = load ptr, ptr %3, align 8, !tbaa !64
  %6 = load i32, ptr %4, align 4, !tbaa !7
  %7 = call ptr @Jf_ObjCuts(ptr noundef %5, i32 noundef %6)
  %8 = getelementptr inbounds i32, ptr %7, i64 1
  ret ptr %8
}

; Function Attrs: inlinehint nounwind uwtable
define internal i32 @Gia_ObjRefDecId(ptr noundef %0, i32 noundef %1) #1 {
  %3 = alloca ptr, align 8
  %4 = alloca i32, align 4
  store ptr %0, ptr %3, align 8, !tbaa !21
  store i32 %1, ptr %4, align 4, !tbaa !7
  %5 = load ptr, ptr %3, align 8, !tbaa !21
  %6 = getelementptr inbounds nuw %struct.Gia_Man_t_, ptr %5, i32 0, i32 19
  %7 = load ptr, ptr %6, align 8, !tbaa !75
  %8 = load i32, ptr %4, align 4, !tbaa !7
  %9 = sext i32 %8 to i64
  %10 = getelementptr inbounds i32, ptr %7, i64 %9
  %11 = load i32, ptr %10, align 4, !tbaa !7
  %12 = add nsw i32 %11, -1
  store i32 %12, ptr %10, align 4, !tbaa !7
  ret i32 %12
}

; Function Attrs: inlinehint nounwind uwtable
define internal i32 @Jf_CutVar(ptr noundef %0, i32 noundef %1) #1 {
  %3 = alloca ptr, align 8
  %4 = alloca i32, align 4
  store ptr %0, ptr %3, align 8, !tbaa !27
  store i32 %1, ptr %4, align 4, !tbaa !7
  %5 = load ptr, ptr %3, align 8, !tbaa !27
  %6 = load i32, ptr %4, align 4, !tbaa !7
  %7 = sext i32 %6 to i64
  %8 = getelementptr inbounds i32, ptr %5, i64 %7
  %9 = load i32, ptr %8, align 4, !tbaa !7
  %10 = call i32 @Abc_Lit2Var(i32 noundef %9)
  ret i32 %10
}

; Function Attrs: inlinehint nounwind uwtable
define internal i32 @Jf_CutSize(ptr noundef %0) #1 {
  %2 = alloca ptr, align 8
  store ptr %0, ptr %2, align 8, !tbaa !27
  %3 = load ptr, ptr %2, align 8, !tbaa !27
  %4 = getelementptr inbounds i32, ptr %3, i64 0
  %5 = load i32, ptr %4, align 4, !tbaa !7
  %6 = and i32 %5, 15
  ret i32 %6
}

; Function Attrs: nounwind uwtable
define i32 @Jf_CutCheckMffc_rec(ptr noundef %0, ptr noundef %1, i32 noundef %2) #0 {
  %4 = alloca i32, align 4
  %5 = alloca ptr, align 8
  %6 = alloca ptr, align 8
  %7 = alloca i32, align 4
  %8 = alloca i32, align 4
  %9 = alloca i32, align 4
  %10 = alloca i32, align 4
  %11 = alloca i32, align 4
  store ptr %0, ptr %5, align 8, !tbaa !64
  store ptr %1, ptr %6, align 8, !tbaa !27
  store i32 %2, ptr %7, align 4, !tbaa !7
  call void @llvm.lifetime.start.p0(i64 4, ptr %8) #14
  call void @llvm.lifetime.start.p0(i64 4, ptr %9) #14
  store i32 1, ptr %8, align 4, !tbaa !7
  br label %12

12:                                               ; preds = %69, %3
  %13 = load i32, ptr %8, align 4, !tbaa !7
  %14 = load ptr, ptr %6, align 8, !tbaa !27
  %15 = call i32 @Jf_CutSize(ptr noundef %14)
  %16 = icmp sle i32 %13, %15
  br i1 %16, label %17, label %22

17:                                               ; preds = %12
  %18 = load ptr, ptr %6, align 8, !tbaa !27
  %19 = load i32, ptr %8, align 4, !tbaa !7
  %20 = call i32 @Jf_CutVar(ptr noundef %18, i32 noundef %19)
  store i32 %20, ptr %9, align 4, !tbaa !7
  %21 = icmp ne i32 %20, 0
  br label %22

22:                                               ; preds = %17, %12
  %23 = phi i1 [ false, %12 ], [ %21, %17 ]
  br i1 %23, label %24, label %72

24:                                               ; preds = %22
  call void @llvm.lifetime.start.p0(i64 4, ptr %10) #14
  %25 = load ptr, ptr %5, align 8, !tbaa !64
  %26 = getelementptr inbounds nuw %struct.Jf_Man_t_, ptr %25, i32 0, i32 0
  %27 = load ptr, ptr %26, align 8, !tbaa !66
  %28 = load i32, ptr %9, align 4, !tbaa !7
  %29 = call i32 @Gia_ObjRefDecId(ptr noundef %27, i32 noundef %28)
  %30 = icmp ne i32 %29, 0
  br i1 %30, label %39, label %31

31:                                               ; preds = %24
  %32 = load ptr, ptr %5, align 8, !tbaa !64
  %33 = load i32, ptr %9, align 4, !tbaa !7
  %34 = call ptr @Jf_ObjCutBest(ptr noundef %32, i32 noundef %33)
  %35 = load i32, ptr %9, align 4, !tbaa !7
  %36 = call i32 @Jf_CutIsTriv(ptr noundef %34, i32 noundef %35)
  %37 = icmp ne i32 %36, 0
  %38 = xor i1 %37, true
  br label %39

39:                                               ; preds = %31, %24
  %40 = phi i1 [ false, %24 ], [ %38, %31 ]
  %41 = zext i1 %40 to i32
  store i32 %41, ptr %10, align 4, !tbaa !7
  %42 = load ptr, ptr %5, align 8, !tbaa !64
  %43 = getelementptr inbounds nuw %struct.Jf_Man_t_, ptr %42, i32 0, i32 11
  %44 = load ptr, ptr %43, align 8, !tbaa !100
  %45 = load i32, ptr %9, align 4, !tbaa !7
  call void @Vec_IntPush(ptr noundef %44, i32 noundef %45)
  %46 = load ptr, ptr %5, align 8, !tbaa !64
  %47 = getelementptr inbounds nuw %struct.Jf_Man_t_, ptr %46, i32 0, i32 11
  %48 = load ptr, ptr %47, align 8, !tbaa !100
  %49 = call i32 @Vec_IntSize(ptr noundef %48)
  %50 = load i32, ptr %7, align 4, !tbaa !7
  %51 = icmp sge i32 %49, %50
  br i1 %51, label %52, label %53

52:                                               ; preds = %39
  store i32 0, ptr %4, align 4
  store i32 1, ptr %11, align 4
  br label %66

53:                                               ; preds = %39
  %54 = load i32, ptr %10, align 4, !tbaa !7
  %55 = icmp ne i32 %54, 0
  br i1 %55, label %56, label %65

56:                                               ; preds = %53
  %57 = load ptr, ptr %5, align 8, !tbaa !64
  %58 = load ptr, ptr %5, align 8, !tbaa !64
  %59 = load i32, ptr %9, align 4, !tbaa !7
  %60 = call ptr @Jf_ObjCutBest(ptr noundef %58, i32 noundef %59)
  %61 = load i32, ptr %7, align 4, !tbaa !7
  %62 = call i32 @Jf_CutCheckMffc_rec(ptr noundef %57, ptr noundef %60, i32 noundef %61)
  %63 = icmp ne i32 %62, 0
  br i1 %63, label %65, label %64

64:                                               ; preds = %56
  store i32 0, ptr %4, align 4
  store i32 1, ptr %11, align 4
  br label %66

65:                                               ; preds = %56, %53
  store i32 0, ptr %11, align 4
  br label %66

66:                                               ; preds = %65, %64, %52
  call void @llvm.lifetime.end.p0(i64 4, ptr %10) #14
  %67 = load i32, ptr %11, align 4
  switch i32 %67, label %73 [
    i32 0, label %68
  ]

68:                                               ; preds = %66
  br label %69

69:                                               ; preds = %68
  %70 = load i32, ptr %8, align 4, !tbaa !7
  %71 = add nsw i32 %70, 1
  store i32 %71, ptr %8, align 4, !tbaa !7
  br label %12, !llvm.loop !151

72:                                               ; preds = %22
  store i32 1, ptr %4, align 4
  store i32 1, ptr %11, align 4
  br label %73

73:                                               ; preds = %72, %66
  call void @llvm.lifetime.end.p0(i64 4, ptr %9) #14
  call void @llvm.lifetime.end.p0(i64 4, ptr %8) #14
  %74 = load i32, ptr %4, align 4
  ret i32 %74
}